Certificate:
    Data:
        Version: 3 (0x2)
        Serial Number: 4113 (0x1011)
        Signature Algorithm: ecdsa-with-SHA512
        Issuer: C=FR, ST=PACA, L=Toulon, O=ISEN, OU=Sud, CN=ICA/emailAddress=ica@gmail.com
        Validity
            Not Before: Apr 28 13:06:27 2023 GMT
            Not After : May  7 13:06:27 2024 GMT
        Subject: C=FR, ST=PACA, O=ISEN, L=Toulon, OU=Sud, CN=OCSP/emailAddress=ocsp@gmail.com
        Subject Public Key Info:
            Public Key Algorithm: id-ecPublicKey
                Public-Key: (256 bit)
                pub:
                    04:7d:3e:43:c5:67:65:f7:27:77:3d:0b:24:eb:fd:
                    e3:dc:66:d5:43:dc:be:92:af:bf:0f:f8:e6:b8:7e:
                    b2:8d:8d:99:08:c7:2d:05:2e:3d:b0:ac:8a:98:90:
                    8f:de:34:22:ba:59:48:97:07:37:d2:1d:e0:8b:1b:
                    25:be:dd:11:45
                ASN1 OID: prime256v1
                NIST CURVE: P-256
        X509v3 extensions:
            X509v3 Basic Constraints: 
                CA:FALSE
            X509v3 Subject Key Identifier: 
                10:2A:1C:59:9C:40:8B:9E:34:95:69:3F:6A:E9:80:4C:3A:21:3A:73
            X509v3 Authority Key Identifier: 
                keyid:27:4E:C6:09:F8:83:F6:53:89:43:6E:48:89:E9:0D:DC:E7:FB:05:6C

            X509v3 Key Usage: critical
                Digital Signature
            X509v3 Extended Key Usage: critical
                OCSP Signing
    Signature Algorithm: ecdsa-with-SHA512
         30:45:02:20:3f:79:ad:e9:48:b9:38:2f:f7:a8:5a:b0:cc:bd:
         bc:b3:d4:92:84:b7:ef:f7:47:72:5b:11:ab:69:26:9f:46:8e:
         02:21:00:a3:40:44:a2:dd:1a:0b:ef:f3:e1:89:29:5e:99:91:
         d5:61:c4:96:a8:fd:86:21:dd:de:89:e2:4e:b9:3e:58:20
-----BEGIN CERTIFICATE-----
MIICUzCCAfmgAwIBAgICEBEwCgYIKoZIzj0EAwQwdjELMAkGA1UEBhMCRlIxDTAL
BgNVBAgMBFBBQ0ExDzANBgNVBAcMBlRvdWxvbjENMAsGA1UECgwESVNFTjEMMAoG
A1UECwwDU3VkMQwwCgYDVQQDDANJQ0ExHDAaBgkqhkiG9w0BCQEWDWljYUBnbWFp
bC5jb20wHhcNMjMwNDI4MTMwNjI3WhcNMjQwNTA3MTMwNjI3WjB4MQswCQYDVQQG
EwJGUjENMAsGA1UECAwEUEFDQTENMAsGA1UECgwESVNFTjEPMA0GA1UEBwwGVG91
bG9uMQwwCgYDVQQLDANTdWQxDTALBgNVBAMMBE9DU1AxHTAbBgkqhkiG9w0BCQEW
Dm9jc3BAZ21haWwuY29tMFkwEwYHKoZIzj0CAQYIKoZIzj0DAQcDQgAEfT5DxWdl
9yd3PQsk6/3j3GbVQ9y+kq+/D/jmuH6yjY2ZCMctBS49sKyKmJCP3jQiullIlwc3
0h3gixslvt0RRaN1MHMwCQYDVR0TBAIwADAdBgNVHQ4EFgQUECocWZxAi540lWk/
aumATDohOnMwHwYDVR0jBBgwFoAUJ07GCfiD9lOJQ25IiekN3Of7BWwwDgYDVR0P
AQH/BAQDAgeAMBYGA1UdJQEB/wQMMAoGCCsGAQUFBwMJMAoGCCqGSM49BAMEA0gA
MEUCID95relIuTgv96hasMy9vLPUkoS37/dHclsRq2kmn0aOAiEAo0BEot0aC+/z
4YkpXpmR1WHElqj9hiHd3oniTrk+WCA=
-----END CERTIFICATE-----
